(dp0
S'METTS MARK'
p1
(dp2
S'salary'
p3
I365788
sS'to_messages'
p4
I807
sS'deferral_payments'
p5
S'NaN'
p6
sS'total_payments'
p7
I1061827
sS'exercised_stock_options'
p8
g6
sS'bonus'
p9
I600000
sS'director_fees'
p10
g6
sS'restricted_stock_deferred'
p11
g6
sS'restricted_stock'
p12
I585062
sS'total_stock_value'
p13
I585062
sS'expenses'
p14
I94299
sS'from_poi_to_this_person'
p15
I38
sS'loan_advances'
p16
g6
sS'from_messages'
p17
I29
sS'other'
p18
I1740
sS'from_this_person_to_poi'
p19
I1
sS'poi'
p20
I00
sS'long_term_incentive'
p21
g6
sS'shared_receipt_with_poi'
p22
I702
sS'email_address'
p23
S'mark.metts@enron.com'
p24
sS'deferred_income'
p25
g6
ssS'BAXTER JOHN C'
p26
(dp27
g3
I267102
sg4
g6
sg5
I1295738
sg7
I5634343
sg8
I6680544
sg9
I1200000
sg10
g6
sg11
g6
sg12
I3942714
sg13
I10623258
sg14
I11200
sg15
g6
sg16
g6
sg17
g6
sg18
I2660303
sg19
g6
sg20
I00
sg21
I1586055
sg22
g6
sg23
g6
sg25
I-1386055
ssS'ELLIOTT STEVEN'
p28
(dp29
g3
I170941
sg4
g6
sg5
g6
sg7
I211725
sg8
I4890344
sg9
I350000
sg10
g6
sg11
g6
sg12
I1788391
sg13
I6678735
sg14
I78552
sg15
g6
sg16
g6
sg17
g6
sg18
I12961
sg19
g6
sg20
I00
sg21
g6
sg22
g6
sg23
S'steven.elliott@enron.com'
p30
sg25
I-400729
ssS'CORDES WILLIAM R'
p31
(dp32
g3
g6
sg4
I764
sg5
g6
sg7
g6
sg8
I651850
sg9
g6
sg10
g6
sg11
g6
sg12
I386335
sg13
I1038185
sg14
g6
sg15
I10
sg16
g6
sg17
I12
sg18
g6
sg19
I0
sg20
I00
sg21
g6
sg22
I58
sg23
S'bill.cordes@enron.com'
p33
sg25
g6
ssS'HANNON KEVIN P'
p34
(dp35
g3
I243293
sg4
I1045
sg5
g6
sg7
I288682
sg8
I5538001
sg9
I1500000
sg10
g6
sg11
g6
sg12
I853064
sg13
I6391065
sg14
I34039
sg15
I32
sg16
g6
sg17
I32
sg18
I11350
sg19
I21
sg20
I01
sg21
I1617011
sg22
I1035
sg23
S'kevin.hannon@enron.com'
p36
sg25
I-3117011
ssS'MORDAUNT KRISTINA M'
p37
(dp38
g3
I267093
sg4
g6
sg5
g6
sg7
I628522
sg8
g6
sg9
I325000
sg10
g6
sg11
g6
sg12
I208510
sg13
I208510
sg14
I35018
sg15
g6
sg16
g6
sg17
g6
sg18
I1411
sg19
g6
sg20
I00
sg21
g6
sg22
g6
sg23
S'kristina.mordaunt@enron.com'
p39
sg25
g6
ssS'MEYER ROCKFORD G'
p40
(dp41
g3
g6
sg4
I232
sg5
I1848227
sg7
I1848227
sg8
I493489
sg9
g6
sg10
g6
sg11
g6
sg12
I462384
sg13
I955873
sg14
g6
sg15
I0
sg16
g6
sg17
I28
sg18
g6
sg19
I0
sg20
I00
sg21
g6
sg22
I22
sg23
S'rockford.meyer@enron.com'
p42
sg25
g6
ssS'MCMAHON JEFFREY'
p43
(dp44
g3
I370448
sg4
I2355
sg5
g6
sg7
I4099771
sg8
I1104054
sg9
I2600000
sg10
g6
sg11
g6
sg12
I558801
sg13
I1662855
sg14
I137108
sg15
I58
sg16
g6
sg17
I48
sg18
I297353
sg19
I26
sg20
I00
sg21
I694862
sg22
I2228
sg23
S'jeffrey.mcmahon@enron.com'
p45
sg25
g6
ssS'HORTON STANLEY C'
p46
(dp47
g3
g6
sg4
I2350
sg5
I3131860
sg7
I3131860
sg8
I5210569
sg9
g6
sg10
g6
sg11
g6
sg12
I2046079
sg13
I7256648
sg14
g6
sg15
I44
sg16
g6
sg17
I1073
sg18
g6
sg19
I15
sg20
I00
sg21
g6
sg22
I1074
sg23
S'stanley.horton@enron.com'
p48
sg25
g6
ssS'PIPER GREGORY F'
p49
(dp50
g3
I197091
sg4
I1238
sg5
I1130036
sg7
I1737629
sg8
I880290
sg9
I400000
sg10
g6
sg11
I-409554
sg12
I409554
sg13
I880290
sg14
I43057
sg15
I61
sg16
g6
sg17
I222
sg18
I778
sg19
I48
sg20
I00
sg21
g6
sg22
I742
sg23
S'greg.piper@enron.com'
p51
sg25
I-33333
ssS'HUMPHREY GENE E'
p52
(dp53
g3
I130724
sg4
I128
sg5
I2964506
sg7
I3100224
sg8
I2282768
sg9
g6
sg10
g6
sg11
g6
sg12
g6
sg13
I2282768
sg14
I4994
sg15
I10
sg16
g6
sg17
I17
sg18
g6
sg19
I17
sg20
I00
sg21
g6
sg22
I119
sg23
S'gene.humphrey@enron.com'
p54
sg25
g6
ssS'UMANOFF ADAM S'
p55
(dp56
g3
I288589
sg4
I111
sg5
g6
sg7
I1130461
sg8
g6
sg9
I788750
sg10
g6
sg11
g6
sg12
g6
sg13
g6
sg14
I53122
sg15
I12
sg16
g6
sg17
I18
sg18
g6
sg19
I0
sg20
I00
sg21
g6
sg22
I41
sg23
S'adam.umanoff@enron.com'
p57
sg25
g6
ssS'BLACHMAN JEREMY M'
p58
(dp59
g3
I248546
sg4
I2475
sg5
g6
sg7
I2014835
sg8
I765313
sg9
I850000
sg10
g6
sg11
g6
sg12
I189041
sg13
I954354
sg14
I84208
sg15
I25
sg16
g6
sg17
I14
sg18
I272
sg19
I2
sg20
I00
sg21
I831809
sg22
I2326
sg23
S'jeremy.blachman@enron.com'
p60
sg25
g6
ssS'SUNDE MARTIN'
p61
(dp62
g3
I257486
sg4
I2647
sg5
g6
sg7
I1545059
sg8
g6
sg9
I700000
sg10
g6
sg11
g6
sg12
I698920
sg13
I698920
sg14
g6
sg15
I37
sg16
g6
sg17
I38
sg18
I111122
sg19
I13
sg20
I00
sg21
I476451
sg22
I2565
sg23
S'marty.sunde@enron.com'
p63
sg25
g6
ssS'GIBBS DANA R'
p64
(dp65
g3
g6
sg4
I169
sg5
I504610
sg7
I966522
sg8
I2218275
sg9
g6
sg10
g6
sg11
g6
sg12
g6
sg13
I2218275
sg14
g6
sg15
I0
sg16
g6
sg17
I12
sg18
g6
sg19
I0
sg20
I00
sg21
I461912
sg22
I23
sg23
S'dana.gibbs@enron.com'
p66
sg25
g6
ssS'LOWRY CHARLES P'
p67
(dp68
g3
g6
sg4
g6
sg5
g6
sg7
g6
sg8
I372205
sg9
g6
sg10
g6
sg11
I-153686
sg12
I153686
sg13
I372205
sg14
g6
sg15
g6
sg16
g6
sg17
g6
sg18
g6
sg19
g6
sg20
I00
sg21
g6
sg22
g6
sg23
g6
sg25
g6
ssS'COLWELL WESLEY'
p69
(dp70
g3
I288542
sg4
I1758
sg5
I27610
sg7
I1490344
sg8
g6
sg9
I1200000
sg10
g6
sg11
g6
sg12
I698242
sg13
I698242
sg14
I16514
sg15
I240
sg16
g6
sg17
I40
sg18
I101740
sg19
I11
sg20
I01
sg21
g6
sg22
I1132
sg23
S'wes.colwell@enron.com'
p71
sg25
I-144062
ssS'MULLER MARK S'
p72
(dp73
g3
I251654
sg4
I136
sg5
I842924
sg7
I3202070
sg8
I1056320
sg9
I1100000
sg10
g6
sg11
g6
sg12
I360528
sg13
I1416848
sg14
g6
sg15
I12
sg16
g6
sg17
I16
sg18
I947
sg19
I0
sg20
I00
sg21
I1725545
sg22
I114
sg23
S's..muller@enron.com'
p74
sg25
I-719000
ssS'JACKSON CHARLENE R'
p75
(dp76
g3
I288558
sg4
I258
sg5
g6
sg7
I551174
sg8
I185063
sg9
I250000
sg10
g6
sg11
g6
sg12
I540672
sg13
I725735
sg14
I10181
sg15
I25
sg16
g6
sg17
I56
sg18
I2435
sg19
I19
sg20
I00
sg21
g6
sg22
I117
sg23
S'charlene.jackson@enron.com'
p77
sg25
g6
ssS'WESTFAHL RICHARD K'
p78
(dp79
g3
I63744
sg4
g6
sg5
g6
sg7
I762135
sg8
g6
sg9
g6
sg10
g6
sg11
g6
sg12
I384930
sg13
I384930
sg14
I51870
sg15
g6
sg16
g6
sg17
g6
sg18
I401130
sg19
g6
sg20
I00
sg21
I256191
sg22
g6
sg23
S'dick.westfahl@enron.com'
p80
sg25
I-10800
ssS'WALTERS GARETH W'
p81
(dp82
g3
g6
sg4
g6
sg5
I53625
sg7
I87410
sg8
I1030329
sg9
g6
sg10
g6
sg11
g6
sg12
g6
sg13
I1030329
sg14
I33785
sg15
g6
sg16
g6
sg17
g6
sg18
g6
sg19
g6
sg20
I00
sg21
g6
sg22
g6
sg23
g6
sg25
g6
ssS'WALLS JR ROBERT H'
p83
(dp84
g3
I357091
sg4
I671
sg5
g6
sg7
I1798780
sg8
I4346544
sg9
I850000
sg10
g6
sg11
g6
sg12
I1552453
sg13
I5898997
sg14
I50936
sg15
I17
sg16
g6
sg17
I146
sg18
I2
sg19
I0
sg20
I00
sg21
I540751
sg22
I215
sg23
S'rob.walls@enron.com'
p85
sg25
g6
ssS'KITCHEN LOUISE'
p86
(dp87
g3
I271442
sg4
I8305
sg5
g6
sg7
I3471141
sg8
I81042
sg9
I3100000
sg10
g6
sg11
g6
sg12
I466101
sg13
I547143
sg14
I5774
sg15
I251
sg16
g6
sg17
I1728
sg18
I93925
sg19
I194
sg20
I00
sg21
g6
sg22
I3669
sg23
S'louise.kitchen@enron.com'
p88
sg25
g6
ssS'CHAN RONNIE'
p89
(dp90
g3
g6
sg4
g6
sg5
g6
sg7
g6
sg8
g6
sg9
g6
sg10
I98784
sg11
I-32460
sg12
I32460
sg13
g6
sg14
g6
sg15
g6
sg16
g6
sg17
g6
sg18
g6
sg19
g6
sg20
I00
sg21
g6
sg22
g6
sg23
g6
sg25
I-98784
ssS'BELFER ROBERT'
p91
(dp92
g3
g6
sg4
g6
sg5
I-102500
sg7
I102500
sg8
I3285
sg9
g6
sg10
I3285
sg11
I44093
sg12
g6
sg13
I-44093
sg14
g6
sg15
g6
sg16
g6
sg17
g6
sg18
g6
sg19
g6
sg20
I00
sg21
g6
sg22
g6
sg23
g6
sg25
g6
ssS'SHANKMAN JEFFREY A'
p93
(dp94
g3
I304110
sg4
I3221
sg5
g6
sg7
I3038702
sg8
I1441898
sg9
I2000000
sg10
g6
sg11
g6
sg12
I630137
sg13
I2072035
sg14
I178979
sg15
I94
sg16
g6
sg17
I2681
sg18
I1191
sg19
I83
sg20
I00
sg21
I554422
sg22
I1730
sg23
S'jeffrey.shankman@enron.com'
p95
sg25
g6
ssS'WODRASKA JOHN'
p96
(dp97
g3
g6
sg4
g6
sg5
g6
sg7
I189583
sg8
g6
sg9
g6
sg10
g6
sg11
g6
sg12
g6
sg13
g6
sg14
g6
sg15
g6
sg16
g6
sg17
g6
sg18
I189583
sg19
g6
sg20
I00
sg21
g6
sg22
g6
sg23
S'john.wodraska@enron.com'
p98
sg25
g6
ssS'BERGSIEKER RICHARD P'
p99
(dp100
g3
I187922
sg4
I383
sg5
g6
sg7
I618850
sg8
g6
sg9
I250000
sg10
g6
sg11
g6
sg12
I659249
sg13
I659249
sg14
I59175
sg15
I4
sg16
g6
sg17
I59
sg18
I427316
sg19
I0
sg20
I00
sg21
I180250
sg22
I233
sg23
S'rick.bergsieker@enron.com'
p101
sg25
I-485813
ssS'URQUHART JOHN A'
p102
(dp103
g3
g6
sg4
g6
sg5
g6
sg7
I228656
sg8
g6
sg9
g6
sg10
I36666
sg11
g6
sg12
g6
sg13
g6
sg14
I228656
sg15
g6
sg16
g6
sg17
g6
sg18
g6
sg19
g6
sg20
I00
sg21
g6
sg22
g6
sg23
g6
sg25
I-36666
ssS'BIBI PHILIPPE A'
p104
(dp105
g3
I213625
sg4
I1607
sg5
g6
sg7
I2047593
sg8
I1465734
sg9
I1000000
sg10
g6
sg11
g6
sg12
I378082
sg13
I1843816
sg14
I38559
sg15
I23
sg16
g6
sg17
I40
sg18
I425688
sg19
I8
sg20
I00
sg21
I369721
sg22
I1336
sg23
S'philippe.bibi@enron.com'
p106
sg25
g6
ssS'PIRO JIM'
p107
(dp108
g3
g6
sg4
I58
sg5
g6
sg7
g6
sg8
g6
sg9
g6
sg10
g6
sg11
g6
sg12
I47304
sg13
I47304
sg14
g6
sg15
I0
sg16
g6
sg17
I16
sg18
g6
sg19
I1
sg20
I00
sg21
g6
sg22
I3
sg23
S'jim.piro@enron.com'
p109
sg25
g6
ssS'RIEKER PAULA H'
p110
(dp111
g3
I249201
sg4
I1328
sg5
I214678
sg7
I1099100
sg8
I1635238
sg9
I700000
sg10
g6
sg11
g6
sg12
I283649
sg13
I1918887
sg14
I33271
sg15
I35
sg16
g6
sg17
I82
sg18
I1950
sg19
I48
sg20
I01
sg21
g6
sg22
I1258
sg23
S'paula.rieker@enron.com'
p112
sg25
I-100000
ssS'WHALEY DAVID A'
p113
(dp114
g3
g6
sg4
g6
sg5
g6
sg7
g6
sg8
I98718
sg9
g6
sg10
g6
sg11
g6
sg12
g6
sg13
I98718
sg14
g6
sg15
g6
sg16
g6
sg17
g6
sg18
g6
sg19
g6
sg20
I00
sg21
g6
sg22
g6
sg23
g6
sg25
g6
ssS'BECK SALLY W'
p115
(dp116
g3
I231330
sg4
I7315
sg5
g6
sg7
I969068
sg8
g6
sg9
I700000
sg10
g6
sg11
g6
sg12
I126027
sg13
I126027
sg14
I37172
sg15
I144
sg16
g6
sg17
I4343
sg18
I566
sg19
I386
sg20
I00
sg21
g6
sg22
I2639
sg23
S'sally.beck@enron.com'
p117
sg25
g6
ssS'HAUG DAVID L'
p118
(dp119
g3
g6
sg4
I573
sg5
g6
sg7
I475
sg8
g6
sg9
g6
sg10
g6
sg11
g6
sg12
I2217299
sg13
I2217299
sg14
I475
sg15
I4
sg16
g6
sg17
I19
sg18
g6
sg19
I7
sg20
I00
sg21
g6
sg22
I471
sg23
S'david.haug@enron.com'
p120
sg25
g6
ssS'ECHOLS JOHN B'
p121
(dp122
g3
I182245
sg4
g6
sg5
g6
sg7
I2692324
sg8
I601438
sg9
I200000
sg10
g6
sg11
g6
sg12
I407503
sg13
I1008941
sg14
I21530
sg15
g6
sg16
g6
sg17
g6
sg18
I53775
sg19
g6
sg20
I00
sg21
I2234774
sg22
g6
sg23
S'john.echols@enron.com'
p123
sg25
g6
ssS'MENDELSOHN JOHN'
p124
(dp125
g3
g6
sg4
g6
sg5
g6
sg7
I148
sg8
g6
sg9
g6
sg10
I103750
sg11
g6
sg12
g6
sg13
g6
sg14
I148
sg15
g6
sg16
g6
sg17
g6
sg18
g6
sg19
g6
sg20
I00
sg21
g6
sg22
g6
sg23
g6
sg25
I-103750
ssS'HICKERSON GARY J'
p126
(dp127
g3
I211788
sg4
I1320
sg5
g6
sg7
I2081796
sg8
g6
sg9
I1700000
sg10
g6
sg11
g6
sg12
I441096
sg13
I441096
sg14
I98849
sg15
I40
sg16
g6
sg17
I27
sg18
I1936
sg19
I1
sg20
I00
sg21
I69223
sg22
I900
sg23
S'gary.hickerson@enron.com'
p128
sg25
g6
ssS'CLINE KENNETH W'
p129
(dp130
g3
g6
sg4
g6
sg5
g6
sg7
g6
sg8
g6
sg9
g6
sg10
g6
sg11
I-472568
sg12
I662086
sg13
I189518
sg14
g6
sg15
g6
sg16
g6
sg17
g6
sg18
g6
sg19
g6
sg20
I00
sg21
g6
sg22
g6
sg23
g6
sg25
g6
ssS'LEWIS RICHARD'
p131
(dp132
g3
g6
sg4
I952
sg5
g6
sg7
g6
sg8
I850477
sg9
g6
sg10
g6
sg11
g6
sg12
g6
sg13
I850477
sg14
g6
sg15
I10
sg16
g6
sg17
I26
sg18
g6
sg19
I0
sg20
I00
sg21
g6
sg22
I739
sg23
S'richard.lewis@enron.com'
p133
sg25
g6
ssS'HAYES ROBERT E'
p134
(dp135
g3
g6
sg4
I504
sg5
I7961
sg7
I7961
sg8
g6
sg9
g6
sg10
g6
sg11
g6
sg12
I151418
sg13
I151418
sg14
g6
sg15
I16
sg16
g6
sg17
I12
sg18
g6
sg19
I0
sg20
I00
sg21
g6
sg22
I50
sg23
S'robert.hayes@enron.com'
p136
sg25
g6
ssS'KOPPER MICHAEL J'
p137
(dp138
g3
I224305
sg4
g6
sg5
g6
sg7
I2652612
sg8
g6
sg9
I800000
sg10
g6
sg11
g6
sg12
I985032
sg13
I985032
sg14
I118134
sg15
g6
sg16
g6
sg17
g6
sg18
I907502
sg19
g6
sg20
I01
sg21
I602671
sg22
g6
sg23
S'michael.kopper@enron.com'
p139
sg25
g6
ssS'LEFF DANIEL P'
p140
(dp141
g3
I273746
sg4
I2822
sg5
g6
sg7
I2664228
sg8
g6
sg9
I1000000
sg10
g6
sg11
g6
sg12
I360528
sg13
I360528
sg14
g6
sg15
I67
sg16
g6
sg17
I63
sg18
I3083
sg19
I14
sg20
I00
sg21
I1387399
sg22
I2672
sg23
S'dan.leff@enron.com'
p142
sg25
g6
ssS'LAVORATO JOHN J'
p143
(dp144
g3
I339288
sg4
I7259
sg5
g6
sg7
I10425757
sg8
I4158995
sg9
I8000000
sg10
g6
sg11
g6
sg12
I1008149
sg13
I5167144
sg14
I49537
sg15
I528
sg16
g6
sg17
I2585
sg18
I1552
sg19
I411
sg20
I00
sg21
I2035380
sg22
I3962
sg23
S'john.lavorato@enron.com'
p145
sg25
g6
ssS'BERBERIAN DAVID'
p146
(dp147
g3
I216582
sg4
g6
sg5
g6
sg7
I228474
sg8
I1624396
sg9
g6
sg10
g6
sg11
g6
sg12
I869220
sg13
I2493616
sg14
I11892
sg15
g6
sg16
g6
sg17
g6
sg18
g6
sg19
g6
sg20
I00
sg21
g6
sg22
g6
sg23
S'david.berberian@enron.com'
p148
sg25
g6
ssS'DETMERING TIMOTHY J'
p149
(dp150
g3
I210500
sg4
g6
sg5
I875307
sg7
I1204583
sg8
I2027865
sg9
I425000
sg10
g6
sg11
I-315068
sg12
I315068
sg13
I2027865
sg14
I52255
sg15
g6
sg16
g6
sg17
g6
sg18
I1105
sg19
g6
sg20
I00
sg21
I415657
sg22
g6
sg23
S'timothy.detmering@enron.com'
p151
sg25
I-775241
ssS'WAKEHAM JOHN'
p152
(dp153
g3
g6
sg4
g6
sg5
g6
sg7
I213071
sg8
g6
sg9
g6
sg10
I109298
sg11
g6
sg12
g6
sg13
g6
sg14
I103773
sg15
g6
sg16
g6
sg17
g6
sg18
g6
sg19
g6
sg20
I00
sg21
g6
sg22
g6
sg23
g6
sg25
g6
ssS'POWERS WILLIAM'
p154
(dp155
g3
g6
sg4
I653
sg5
g6
sg7
g6
sg8
g6
sg9
g6
sg10
I17500
sg11
g6
sg12
g6
sg13
g6
sg14
g6
sg15
I0
sg16
g6
sg17
I26
sg18
g6
sg19
I0
sg20
I00
sg21
g6
sg22
I12
sg23
S'ken.powers@enron.com'
p156
sg25
I-17500
ssS'GOLD JOSEPH'
p157
(dp158
g3
I272880
sg4
g6
sg5
g6
sg7
I2146973
sg8
I436515
sg9
I750000
sg10
g6
sg11
g6
sg12
I441096
sg13
I877611
sg14
g6
sg15
g6
sg16
g6
sg17
g6
sg18
I819288
sg19
g6
sg20
I00
sg21
I304805
sg22
g6
sg23
S'joe.gold@enron.com'
p159
sg25
g6
ssS'BANNANTINE JAMES M'
p160
(dp161
g3
I477
sg4
I566
sg5
g6
sg7
I916197
sg8
I4046157
sg9
g6
sg10
g6
sg11
I-560222
sg12
I1757552
sg13
I5243487
sg14
I56301
sg15
I39
sg16
g6
sg17
I29
sg18
I864523
sg19
I0
sg20
I00
sg21
g6
sg22
I465
sg23
S'james.bannantine@enron.com'
p162
sg25
I-5104
ssS'DUNCAN JOHN H'
p163
(dp164
g3
g6
sg4
g6
sg5
g6
sg7
I77492
sg8
I371750
sg9
g6
sg10
I102492
sg11
g6
sg12
g6
sg13
I371750
sg14
g6
sg15
g6
sg16
g6
sg17
g6
sg18
g6
sg19
g6
sg20
I00
sg21
g6
sg22
g6
sg23
g6
sg25
I-25000
ssS'SHAPIRO RICHARD S'
p165
(dp166
g3
I269076
sg4
I15149
sg5
g6
sg7
I1057548
sg8
I607837
sg9
I650000
sg10
g6
sg11
g6
sg12
I379164
sg13
I987001
sg14
I137767
sg15
I74
sg16
g6
sg17
I1215
sg18
I705
sg19
I65
sg20
I00
sg21
g6
sg22
I4527
sg23
S'richard.shapiro@enron.com'
p167
sg25
g6
ssS'SHERRIFF JOHN R'
p168
(dp169
g3
I428780
sg4
I3187
sg5
g6
sg7
I4335388
sg8
I1835558
sg9
I1500000
sg10
g6
sg11
g6
sg12
I1293424
sg13
I3128982
sg14
g6
sg15
I28
sg16
g6
sg17
I92
sg18
I1852186
sg19
I23
sg20
I00
sg21
I554422
sg22
I2103
sg23
S'john.sherriff@enron.com'
p170
sg25
g6
ssS'SHELBY REX'
p171
(dp172
g3
I211844
sg4
I225
sg5
g6
sg7
I2003885
sg8
I1624396
sg9
I200000
sg10
g6
sg11
g6
sg12
I869220
sg13
I2493616
sg14
I22884
sg15
I13
sg16
g6
sg17
I39
sg18
I1573324
sg19
I14
sg20
I01
sg21
g6
sg22
I91
sg23
S'rex.shelby@enron.com'
p173
sg25
I-4167
ssS'LEMAISTRE CHARLES'
p174
(dp175
g3
g6
sg4
g6
sg5
g6
sg7
I87492
sg8
I412878
sg9
g6
sg10
I112492
sg11
g6
sg12
g6
sg13
I412878
sg14
g6
sg15
g6
sg16
g6
sg17
g6
sg18
g6
sg19
g6
sg20
I00
sg21
g6
sg22
g6
sg23
g6
sg25
I-25000
ssS'DEFFNER JOSEPH M'
p176
(dp177
g3
I206121
sg4
I714
sg5
g6
sg7
I1208649
sg8
I17378
sg9
I600000
sg10
g6
sg11
g6
sg12
I141833
sg13
I159211
sg14
I41626
sg15
I115
sg16
g6
sg17
I74
sg18
I25553
sg19
I4
sg20
I00
sg21
I335349
sg22
I552
sg23
S'joseph.deffner@enron.com'
p178
sg25
g6
ssS'KISHKILL JOSEPH G'
p179
(dp180
g3
I174246
sg4
g6
sg5
g6
sg7
I704896
sg8
g6
sg9
g6
sg10
g6
sg11
g6
sg12
I1034346
sg13
I1034346
sg14
I116335
sg15
g6
sg16
g6
sg17
g6
sg18
I465357
sg19
g6
sg20
I00
sg21
g6
sg22
g6
sg23
S'joe.kishkill@enron.com'
p181
sg25
I-51042
ssS'WHALLEY LAWRENCE G'
p182
(dp183
g3
I510364
sg4
I6019
sg5
g6
sg7
I4677574
sg8
I3282960
sg9
I3000000
sg10
g6
sg11
g6
sg12
I2796177
sg13
I6079137
sg14
I57838
sg15
I186
sg16
g6
sg17
I556
sg18
I301026
sg19
I24
sg20
I00
sg21
I808346
sg22
I3920
sg23
S'greg.whalley@enron.com'
p184
sg25
g6
ssS'MCCARTY DANNY J'
p185
(dp186
g3
g6
sg4
I1433
sg5
g6
sg7
g6
sg8
I664375
sg9
g6
sg10
g6
sg11
g6
sg12
I94556
sg13
I758931
sg14
g6
sg15
I25
sg16
g6
sg17
I215
sg18
g6
sg19
I2
sg20
I00
sg21
g6
sg22
I508
sg23
S'danny.mccarty@enron.com'
p187
sg25
g6
ssS'MCCONNELL MICHAEL S'
p188
(dp189
g3
I365038
sg4
I3329
sg5
g6
sg7
I2101364
sg8
I1623010
sg9
I1100000
sg10
g6
sg11
g6
sg12
I1478269
sg13
I3101279
sg14
I81364
sg15
I92
sg16
g6
sg17
I2742
sg18
I540
sg19
I194
sg20
I00
sg21
I554422
sg22
I2189
sg23
S'mike.mcconnell@enron.com'
p190
sg25
g6
ssS'DELAINEY DAVID W'
p191
(dp192
g3
I365163
sg4
I3093
sg5
g6
sg7
I4747979
sg8
I2291113
sg9
I3000000
sg10
g6
sg11
g6
sg12
I1323148
sg13
I3614261
sg14
I86174
sg15
I66
sg16
g6
sg17
I3069
sg18
I1661
sg19
I609
sg20
I01
sg21
I1294981
sg22
I2097
sg23
S'david.delainey@enron.com'
p193
sg25
g6
ssS'SULLIVAN-SHAKLOVITZ COLLEEN'
p194
(dp195
g3
I162779
sg4
g6
sg5
I181993
sg7
I999356
sg8
I1362375
sg9
I100000
sg10
g6
sg11
g6
sg12
g6
sg13
I1362375
sg14
g6
sg15
g6
sg16
g6
sg17
g6
sg18
I162
sg19
g6
sg20
I00
sg21
I554422
sg22
g6
sg23
g6
sg25
g6
ssS'WROBEL BRUCE'
p196
(dp197
g3
g6
sg4
g6
sg5
g6
sg7
g6
sg8
I139130
sg9
g6
sg10
g6
sg11
g6
sg12
g6
sg13
I139130
sg14
g6
sg15
g6
sg16
g6
sg17
g6
sg18
g6
sg19
g6
sg20
I00
sg21
g6
sg22
g6
sg23
g6
sg25
g6
ssS'LINDHOLM TOD A'
p198
(dp199
g3
I236457
sg4
g6
sg5
I204075
sg7
I875889
sg8
I2549361
sg9
I200000
sg10
g6
sg11
g6
sg12
I514847
sg13
I3064208
sg14
I57727
sg15
g6
sg16
g6
sg17
g6
sg18
I2630
sg19
g6
sg20
I00
sg21
I175000
sg22
g6
sg23
S'tod.lindholm@enron.com'
p200
sg25
g6
ssS'MEYER JEROME J'
p201
(dp202
g3
g6
sg4
g6
sg5
g6
sg7
I2151
sg8
g6
sg9
g6
sg10
I38346
sg11
g6
sg12
g6
sg13
g6
sg14
I2151
sg15
g6
sg16
g6
sg17
g6
sg18
g6
sg19
g6
sg20
I00
sg21
g6
sg22
g6
sg23
g6
sg25
I-38346
ssS'LAY KENNETH L'
p203
(dp204
g3
I1072321
sg4
I4273
sg5
I202911
sg7
I103559793
sg8
I34348384
sg9
I7000000
sg10
g6
sg11
g6
sg12
I14761694
sg13
I49110078
sg14
I99832
sg15
I123
sg16
I81525000
sg17
I36
sg18
I10359729
sg19
I16
sg20
I01
sg21
I3600000
sg22
I2411
sg23
S'kenneth.lay@enron.com'
p205
sg25
I-300000
ssS'BUTTS ROBERT H'
p206
(dp207
g3
I261516
sg4
g6
sg5
g6
sg7
I1271582
sg8
g6
sg9
I750000
sg10
g6
sg11
g6
sg12
I417619
sg13
I417619
sg14
I9410
sg15
g6
sg16
g6
sg17
g6
sg18
I150656
sg19
g6
sg20
I00
sg21
I175000
sg22
g6
sg23
S'bob.butts@enron.com'
p208
sg25
I-75000
ssS'OLSON CINDY K'
p209
(dp210
g3
I329078
sg4
I1184
sg5
I77716
sg7
I1321557
sg8
I1637034
sg9
I750000
sg10
g6
sg11
g6
sg12
I969729
sg13
I2606763
sg14
I63791
sg15
I20
sg16
g6
sg17
I52
sg18
I972
sg19
I15
sg20
I00
sg21
I100000
sg22
I856
sg23
S'cindy.olson@enron.com'
p211
sg25
g6
ssS'MCDONALD REBECCA'
p212
(dp213
g3
g6
sg4
I894
sg5
g6
sg7
g6
sg8
I757301
sg9
g6
sg10
g6
sg11
g6
sg12
I934065
sg13
I1691366
sg14
g6
sg15
I54
sg16
g6
sg17
I13
sg18
g6
sg19
I1
sg20
I00
sg21
g6
sg22
I720
sg23
S'rebecca.mcdonald@enron.com'
p214
sg25
g6
ssS'CUMBERLAND MICHAEL S'
p215
(dp216
g3
I184899
sg4
g6
sg5
g6
sg7
I807956
sg8
g6
sg9
I325000
sg10
g6
sg11
g6
sg12
I207940
sg13
I207940
sg14
I22344
sg15
g6
sg16
g6
sg17
g6
sg18
I713
sg19
g6
sg20
I00
sg21
I275000
sg22
g6
sg23
g6
sg25
g6
ssS'GAHN ROBERT S'
p217
(dp218
g3
I192008
sg4
g6
sg5
I73122
sg7
I900585
sg8
I83237
sg9
I509870
sg10
g6
sg11
g6
sg12
I235370
sg13
I318607
sg14
I50080
sg15
g6
sg16
g6
sg17
g6
sg18
I76547
sg19
g6
sg20
I00
sg21
g6
sg22
g6
sg23
g6
sg25
I-1042
ssS'MCCLELLAN GEORGE'
p219
(dp220
g3
I263413
sg4
I1744
sg5
g6
sg7
I1318763
sg8
I506765
sg9
I900000
sg10
g6
sg11
g6
sg12
I441096
sg13
I947861
sg14
I228763
sg15
I52
sg16
g6
sg17
I49
sg18
I51587
sg19
I0
sg20
I00
sg21
g6
sg22
I1469
sg23
S'george.mcclellan@enron.com'
p221
sg25
I-125000
ssS'HERMANN ROBERT J'
p222
(dp223
g3
I262663
sg4
g6
sg5
g6
sg7
I1297461
sg8
I187500
sg9
I700000
sg10
g6
sg11
g6
sg12
I480632
sg13
I668132
sg14
I48357
sg15
g6
sg16
g6
sg17
g6
sg18
I416441
sg19
g6
sg20
I00
sg21
I150000
sg22
g6
sg23
S'robert.hermann@enron.com'
p224
sg25
I-280000
ssS'SCRIMSHAW MATTHEW'
p225
(dp226
g3
g6
sg4
g6
sg5
g6
sg7
g6
sg8
I759557
sg9
g6
sg10
g6
sg11
g6
sg12
g6
sg13
I759557
sg14
g6
sg15
g6
sg16
g6
sg17
g6
sg18
g6
sg19
g6
sg20
I00
sg21
g6
sg22
g6
sg23
S'matthew.scrimshaw@enron.com'
p227
sg25
g6
ssS'GATHMANN WILLIAM D'
p228
(dp229
g3
g6
sg4
g6
sg5
g6
sg7
g6
sg8
I1753766
sg9
g6
sg10
g6
sg11
I-72419
sg12
I264013
sg13
I1945360
sg14
g6
sg15
g6
sg16
g6
sg17
g6
sg18
g6
sg19
g6
sg20
I00
sg21
g6
sg22
g6
sg23
g6
sg25
g6
ssS'HAEDICKE MARK E'
p230
(dp231
g3
I374125
sg4
I4009
sg5
I2157527
sg7
I3859065
sg8
I608750
sg9
I1150000
sg10
g6
sg11
I-329825
sg12
I524169
sg13
I803094
sg14
I76169
sg15
I180
sg16
g6
sg17
I1941
sg18
I52382
sg19
I61
sg20
I00
sg21
I983346
sg22
I1847
sg23
S'mark.haedicke@enron.com'
p232
sg25
I-934484
ssS'BOWEN JR RAYMOND M'
p233
(dp234
g3
I278601
sg4
I1858
sg5
g6
sg7
I2669589
sg8
g6
sg9
I1350000
sg10
g6
sg11
g6
sg12
I252055
sg13
I252055
sg14
I65907
sg15
I140
sg16
g6
sg17
I27
sg18
I1621
sg19
I15
sg20
I01
sg21
I974293
sg22
I1593
sg23
S'raymond.bowen@enron.com'
p235
sg25
I-833
ssS'GILLIS JOHN'
p236
(dp237
g3
g6
sg4
g6
sg5
g6
sg7
g6
sg8
I9803
sg9
g6
sg10
g6
sg11
g6
sg12
I75838
sg13
I85641
sg14
g6
sg15
g6
sg16
g6
sg17
g6
sg18
g6
sg19
g6
sg20
I00
sg21
g6
sg22
g6
sg23
g6
sg25
g6
ssS'FITZGERALD JAY L'
p238
(dp239
g3
I199157
sg4
I936
sg5
g6
sg7
I1414857
sg8
I664461
sg9
I350000
sg10
g6
sg11
g6
sg12
I956775
sg13
I1621236
sg14
I23870
sg15
I1
sg16
g6
sg17
I16
sg18
I285414
sg19
I8
sg20
I00
sg21
I556416
sg22
I723
sg23
S'jay.fitzgerald@enron.com'
p240
sg25
g6
ssS'MORAN MICHAEL P'
p241
(dp242
g3
g6
sg4
I672
sg5
g6
sg7
g6
sg8
I59539
sg9
g6
sg10
g6
sg11
g6
sg12
I161602
sg13
I221141
sg14
g6
sg15
I0
sg16
g6
sg17
I19
sg18
g6
sg19
I0
sg20
I00
sg21
g6
sg22
I127
sg23
S'michael.moran@enron.com'
p243
sg25
g6
ssS'REDMOND BRIAN L'
p244
(dp245
g3
I96840
sg4
I1671
sg5
g6
sg7
I111529
sg8
I7509039
sg9
g6
sg10
g6
sg11
g6
sg12
I381285
sg13
I7890324
sg14
I14689
sg15
I204
sg16
g6
sg17
I221
sg18
g6
sg19
I49
sg20
I00
sg21
g6
sg22
I1063
sg23
S'brian.redmond@enron.com'
p246
sg25
g6
ssS'BAZELIDES PHILIP J'
p247
(dp248
g3
I80818
sg4
g6
sg5
I684694
sg7
I860136
sg8
I1599641
sg9
g6
sg10
g6
sg11
g6
sg12
g6
sg13
I1599641
sg14
g6
sg15
g6
sg16
g6
sg17
g6
sg18
I874
sg19
g6
sg20
I00
sg21
I93750
sg22
g6
sg23
g6
sg25
g6
ssS'BELDEN TIMOTHY N'
p249
(dp250
g3
I213999
sg4
I7991
sg5
I2144013
sg7
I5501630
sg8
I953136
sg9
I5249999
sg10
g6
sg11
g6
sg12
I157569
sg13
I1110705
sg14
I17355
sg15
I228
sg16
g6
sg17
I484
sg18
I210698
sg19
I108
sg20
I01
sg21
g6
sg22
I5521
sg23
S'tim.belden@enron.com'
p251
sg25
I-2334434
ssS'DURAN WILLIAM D'
p252
(dp253
g3
I210692
sg4
I904
sg5
g6
sg7
I2093263
sg8
I1451869
sg9
I750000
sg10
g6
sg11
g6
sg12
I189041
sg13
I1640910
sg14
I25785
sg15
I106
sg16
g6
sg17
I12
sg18
I1568
sg19
I3
sg20
I00
sg21
I1105218
sg22
I599
sg23
S'w.duran@enron.com'
p254
sg25
g6
ssS'THORN TERENCE H'
p255
(dp256
g3
I222093
sg4
I266
sg5
I16586
sg7
I911453
sg8
I4452476
sg9
g6
sg10
g6
sg11
g6
sg12
I365320
sg13
I4817796
sg14
I46145
sg15
I0
sg16
g6
sg17
I41
sg18
I426629
sg19
I0
sg20
I00
sg21
I200000
sg22
I73
sg23
S'terence.thorn@enron.com'
p257
sg25
g6
ssS'FASTOW ANDREW S'
p258
(dp259
g3
I440698
sg4
g6
sg5
g6
sg7
I2424083
sg8
g6
sg9
I1300000
sg10
g6
sg11
g6
sg12
I1794412
sg13
I1794412
sg14
I55921
sg15
g6
sg16
g6
sg17
g6
sg18
I277464
sg19
g6
sg20
I01
sg21
I1736055
sg22
g6
sg23
S'andrew.fastow@enron.com'
p260
sg25
I-1386055
ssS'FOY JOE'
p261
(dp262
g3
g6
sg4
I57
sg5
I181755
sg7
I181755
sg8
I343434
sg9
g6
sg10
g6
sg11
g6
sg12
g6
sg13
I343434
sg14
g6
sg15
I0
sg16
g6
sg17
I13
sg18
g6
sg19
I0
sg20
I00
sg21
g6
sg22
I2
sg23
S'tracy.foy@enron.com'
p263
sg25
g6
ssS'CALGER CHRISTOPHER F'
p264
(dp265
g3
I240189
sg4
I2598
sg5
g6
sg7
I1639297
sg8
g6
sg9
I1250000
sg10
g6
sg11
g6
sg12
I126027
sg13
I126027
sg14
I35818
sg15
I199
sg16
g6
sg17
I144
sg18
I486
sg19
I25
sg20
I01
sg21
I375304
sg22
I2188
sg23
S'christopher.calger@enron.com'
p266
sg25
I-262500
ssS'RICE KENNETH D'
p267
(dp268
g3
I420636
sg4
I905
sg5
g6
sg7
I505050
sg8
I19794175
sg9
I1750000
sg10
g6
sg11
g6
sg12
I2748364
sg13
I22542539
sg14
I46950
sg15
I42
sg16
g6
sg17
I18
sg18
I174839
sg19
I4
sg20
I01
sg21
I1617011
sg22
I864
sg23
S'ken.rice@enron.com'
p269
sg25
I-3504386
ssS'KAMINSKI WINCENTY J'
p270
(dp271
g3
I275101
sg4
I4607
sg5
g6
sg7
I1086821
sg8
I850010
sg9
I400000
sg10
g6
sg11
g6
sg12
I126027
sg13
I976037
sg14
I83585
sg15
I41
sg16
g6
sg17
I14368
sg18
I4669
sg19
I171
sg20
I00
sg21
I323466
sg22
I583
sg23
S'vince.kaminski@enron.com'
p272
sg25
g6
ssS'LOCKHART EUGENE E'
p273
(dp274
g3
g6
sg4
g6
sg5
g6
sg7
g6
sg8
g6
sg9
g6
sg10
g6
sg11
g6
sg12
g6
sg13
g6
sg14
g6
sg15
g6
sg16
g6
sg17
g6
sg18
g6
sg19
g6
sg20
I00
sg21
g6
sg22
g6
sg23
g6
sg25
g6
ssS'COX DAVID'
p275
(dp276
g3
I314288
sg4
I102
sg5
g6
sg7
I1101393
sg8
I117551
sg9
I800000
sg10
g6
sg11
g6
sg12
I378082
sg13
I495633
sg14
I27861
sg15
I0
sg16
g6
sg17
I33
sg18
I494
sg19
I4
sg20
I00
sg21
g6
sg22
I71
sg23
S'chip.cox@enron.com'
p277
sg25
I-41250
ssS'OVERDYKE JR JERE C'
p278
(dp279
g3
I94941
sg4
g6
sg5
g6
sg7
I249787
sg8
I5266578
sg9
g6
sg10
g6
sg11
g6
sg12
I2041016
sg13
I7307594
sg14
I18834
sg15
g6
sg16
g6
sg17
g6
sg18
I176
sg19
g6
sg20
I00
sg21
I135836
sg22
g6
sg23
S'jere.overdyke@enron.com'
p280
sg25
g6
ssS'PEREIRA PAULO V. FERRAZ'
p281
(dp282
g3
g6
sg4
g6
sg5
g6
sg7
I27942
sg8
g6
sg9
g6
sg10
I101250
sg11
g6
sg12
g6
sg13
g6
sg14
I27942
sg15
g6
sg16
g6
sg17
g6
sg18
g6
sg19
g6
sg20
I00
sg21
g6
sg22
g6
sg23
g6
sg25
I-101250
ssS'STABLER FRANK'
p283
(dp284
g3
I239502
sg4
g6
sg5
g6
sg7
I1112087
sg8
g6
sg9
I500000
sg10
g6
sg11
g6
sg12
I511734
sg13
I511734
sg14
I16514
sg15
g6
sg16
g6
sg17
g6
sg18
I356071
sg19
g6
sg20
I00
sg21
g6
sg22
g6
sg23
S'frank.stabler@enron.com'
p285
sg25
g6
ssS'SKILLING JEFFREY K'
p286
(dp287
g3
I1111258
sg4
I3627
sg5
g6
sg7
I8682716
sg8
I19250000
sg9
I5600000
sg10
g6
sg11
g6
sg12
I6843672
sg13
I26093672
sg14
I29336
sg15
I88
sg16
g6
sg17
I108
sg18
I22122
sg19
I30
sg20
I01
sg21
I1920000
sg22
I2042
sg23
S'jeff.skilling@enron.com'
p288
sg25
g6
ssS'BLAKE JR. NORMAN P'
p289
(dp290
g3
g6
sg4
g6
sg5
g6
sg7
I1279
sg8
g6
sg9
g6
sg10
I113784
sg11
g6
sg12
g6
sg13
g6
sg14
I1279
sg15
g6
sg16
g6
sg17
g6
sg18
g6
sg19
g6
sg20
I00
sg21
g6
sg22
g6
sg23
g6
sg25
I-113784
ssS'SHERRICK JEFFREY B'
p291
(dp292
g3
g6
sg4
I613
sg5
g6
sg7
g6
sg8
I1426469
sg9
g6
sg10
g6
sg11
g6
sg12
I405999
sg13
I1832468
sg14
g6
sg15
I39
sg16
g6
sg17
I25
sg18
g6
sg19
I18
sg20
I00
sg21
g6
sg22
I583
sg23
S'jeffrey.sherrick@enron.com'
p293
sg25
g6
ssS'PRENTICE JAMES'
p294
(dp295
g3
g6
sg4
g6
sg5
I564348
sg7
I564348
sg8
I886231
sg9
g6
sg10
g6
sg11
g6
sg12
I208809
sg13
I1095040
sg14
g6
sg15
g6
sg16
g6
sg17
g6
sg18
g6
sg19
g6
sg20
I00
sg21
g6
sg22
g6
sg23
S'james.prentice@enron.com'
p296
sg25
g6
ssS'GRAY RODNEY'
p297
(dp298
g3
I6615
sg4
g6
sg5
I93585
sg7
I1146658
sg8
g6
sg9
g6
sg10
g6
sg11
g6
sg12
g6
sg13
g6
sg14
g6
sg15
g6
sg16
g6
sg17
g6
sg18
I680833
sg19
g6
sg20
I00
sg21
I365625
sg22
g6
sg23
g6
sg25
g6
ssS'PICKERING MARK R'
p299
(dp300
g3
I655037
sg4
I898
sg5
g6
sg7
I1386690
sg8
I28798
sg9
I300000
sg10
g6
sg11
g6
sg12
g6
sg13
I28798
sg14
I31653
sg15
I7
sg16
I400000
sg17
I67
sg18
g6
sg19
I0
sg20
I00
sg21
g6
sg22
I728
sg23
S'mark.pickering@enron.com'
p301
sg25
g6
ssS'THE TRAVEL AGENCY IN THE PARK'
p302
(dp303
g3
g6
sg4
g6
sg5
g6
sg7
I362096
sg8
g6
sg9
g6
sg10
g6
sg11
g6
sg12
g6
sg13
g6
sg14
g6
sg15
g6
sg16
g6
sg17
g6
sg18
I362096
sg19
g6
sg20
I00
sg21
g6
sg22
g6
sg23
g6
sg25
g6
ssS'NOLES JAMES L'
p304
(dp305
g3
g6
sg4
g6
sg5
I774401
sg7
I774401
sg8
g6
sg9
g6
sg10
g6
sg11
I-94556
sg12
I463261
sg13
I368705
sg14
g6
sg15
g6
sg16
g6
sg17
g6
sg18
g6
sg19
g6
sg20
I00
sg21
g6
sg22
g6
sg23
g6
sg25
g6
ssS'KEAN STEVEN J'
p306
(dp307
g3
I404338
sg4
I12754
sg5
g6
sg7
I1747522
sg8
I2022048
sg9
I1000000
sg10
g6
sg11
g6
sg12
I4131594
sg13
I6153642
sg14
I41953
sg15
I140
sg16
g6
sg17
I6759
sg18
I1231
sg19
I387
sg20
I00
sg21
I300000
sg22
I3639
sg23
S'steven.kean@enron.com'
p308
sg25
g6
ssS'TOTAL'
p309
(dp310
g3
I26704229
sg4
g6
sg5
I32083396
sg7
I309886585
sg8
I311764000
sg9
I97343619
sg10
I1398517
sg11
I-7576788
sg12
I130322299
sg13
I434509511
sg14
I5235198
sg15
g6
sg16
I83925000
sg17
g6
sg18
I42667589
sg19
g6
sg20
I00
sg21
I48521928
sg22
g6
sg23
g6
sg25
I-27992891
ssS'FOWLER PEGGY'
p311
(dp312
g3
g6
sg4
I517
sg5
g6
sg7
g6
sg8
I1324578
sg9
g6
sg10
g6
sg11
g6
sg12
I560170
sg13
I1884748
sg14
g6
sg15
I0
sg16
g6
sg17
I36
sg18
g6
sg19
I0
sg20
I00
sg21
g6
sg22
I10
sg23
S'kulvinder.fowler@enron.com'
p313
sg25
g6
ssS'WASAFF GEORGE'
p314
(dp315
g3
I259996
sg4
I400
sg5
I831299
sg7
I1034395
sg8
I1668260
sg9
I325000
sg10
g6
sg11
g6
sg12
I388167
sg13
I2056427
sg14
g6
sg15
I22
sg16
g6
sg17
I30
sg18
I1425
sg19
I7
sg20
I00
sg21
I200000
sg22
I337
sg23
S'george.wasaff@enron.com'
p316
sg25
I-583325
ssS'WHITE JR THOMAS E'
p317
(dp318
g3
I317543
sg4
g6
sg5
g6
sg7
I1934359
sg8
I1297049
sg9
I450000
sg10
g6
sg11
g6
sg12
I13847074
sg13
I15144123
sg14
I81353
sg15
g6
sg16
g6
sg17
g6
sg18
I1085463
sg19
g6
sg20
I00
sg21
g6
sg22
g6
sg23
S'thomas.white@enron.com'
p319
sg25
g6
ssS'CHRISTODOULOU DIOMEDES'
p320
(dp321
g3
g6
sg4
g6
sg5
g6
sg7
g6
sg8
I5127155
sg9
g6
sg10
g6
sg11
g6
sg12
I950730
sg13
I6077885
sg14
g6
sg15
g6
sg16
g6
sg17
g6
sg18
g6
sg19
g6
sg20
I00
sg21
g6
sg22
g6
sg23
S'diomedes.christodoulou@enron.com'
p322
sg25
g6
ssS'ALLEN PHILLIP K'
p323
(dp324
g3
I201955
sg4
I2902
sg5
I2869717
sg7
I4484442
sg8
I1729541
sg9
I4175000
sg10
g6
sg11
I-126027
sg12
I126027
sg13
I1729541
sg14
I13868
sg15
I47
sg16
g6
sg17
I2195
sg18
I152
sg19
I65
sg20
I00
sg21
I304805
sg22
I1407
sg23
S'phillip.allen@enron.com'
p325
sg25
I-3081055
ssS'SHARP VICTORIA T'
p326
(dp327
g3
I248146
sg4
I3136
sg5
I187469
sg7
I1576511
sg8
I281073
sg9
I600000
sg10
g6
sg11
g6
sg12
I213063
sg13
I494136
sg14
I116337
sg15
I24
sg16
g6
sg17
I136
sg18
I2401
sg19
I6
sg20
I00
sg21
I422158
sg22
I2477
sg23
S'vicki.sharp@enron.com'
p328
sg25
g6
ssS'JAEDICKE ROBERT'
p329
(dp330
g3
g6
sg4
g6
sg5
g6
sg7
I83750
sg8
I431750
sg9
g6
sg10
I108750
sg11
I-44093
sg12
I44093
sg13
I431750
sg14
g6
sg15
g6
sg16
g6
sg17
g6
sg18
g6
sg19
g6
sg20
I00
sg21
g6
sg22
g6
sg23
g6
sg25
I-25000
ssS'WINOKUR JR. HERBERT S'
p331
(dp332
g3
g6
sg4
g6
sg5
g6
sg7
I84992
sg8
g6
sg9
g6
sg10
I108579
sg11
g6
sg12
g6
sg13
g6
sg14
I1413
sg15
g6
sg16
g6
sg17
g6
sg18
g6
sg19
g6
sg20
I00
sg21
g6
sg22
g6
sg23
g6
sg25
I-25000
ssS'BROWN MICHAEL'
p333
(dp334
g3
g6
sg4
I1486
sg5
g6
sg7
I49288
sg8
g6
sg9
g6
sg10
g6
sg11
g6
sg12
g6
sg13
g6
sg14
I49288
sg15
I13
sg16
g6
sg17
I41
sg18
g6
sg19
I1
sg20
I00
sg21
g6
sg22
I761
sg23
S'michael.brown@enron.com'
p335
sg25
g6
ssS'BADUM JAMES P'
p336
(dp337
g3
g6
sg4
g6
sg5
I178980
sg7
I182466
sg8
I257817
sg9
g6
sg10
g6
sg11
g6
sg12
g6
sg13
I257817
sg14
I3486
sg15
g6
sg16
g6
sg17
g6
sg18
g6
sg19
g6
sg20
I00
sg21
g6
sg22
g6
sg23
g6
sg25
g6
ssS'HUGHES JAMES A'
p338
(dp339
g3
g6
sg4
I719
sg5
g6
sg7
g6
sg8
I754966
sg9
g6
sg10
g6
sg11
g6
sg12
I363428
sg13
I1118394
sg14
g6
sg15
I35
sg16
g6
sg17
I34
sg18
g6
sg19
I5
sg20
I00
sg21
g6
sg22
I589
sg23
S'james.hughes@enron.com'
p340
sg25
g6
ssS'REYNOLDS LAWRENCE'
p341
(dp342
g3
I76399
sg4
g6
sg5
I51365
sg7
I394475
sg8
I4160672
sg9
I100000
sg10
g6
sg11
I-140264
sg12
I201483
sg13
I4221891
sg14
I8409
sg15
g6
sg16
g6
sg17
g6
sg18
I202052
sg19
g6
sg20
I00
sg21
I156250
sg22
g6
sg23
g6
sg25
I-200000
ssS'DIMICHELE RICHARD G'
p343
(dp344
g3
I262788
sg4
g6
sg5
g6
sg7
I2368151
sg8
I8191755
sg9
I1000000
sg10
g6
sg11
g6
sg12
I126027
sg13
I8317782
sg14
I35812
sg15
g6
sg16
g6
sg17
g6
sg18
I374689
sg19
g6
sg20
I00
sg21
I694862
sg22
g6
sg23
S'richard.dimichele@enron.com'
p345
sg25
g6
ssS'BHATNAGAR SANJAY'
p346
(dp347
g3
g6
sg4
I523
sg5
g6
sg7
I15456290
sg8
I2604490
sg9
g6
sg10
I137864
sg11
I15456290
sg12
I-2604490
sg14
g6
sg15
I0
sg16
g6
sg17
I29
sg18
I137864
sg19
I1
sg20
I00
sg21
g6
sg22
I463
sg23
S'sanjay.bhatnagar@enron.com'
p348
sg25
g6
ssS'CARTER REBECCA C'
p349
(dp350
g3
I261809
sg4
I312
sg5
g6
sg7
I477557
sg8
g6
sg9
I300000
sg10
g6
sg11
I-307301
sg12
I307301
sg13
g6
sg14
g6
sg15
I29
sg16
g6
sg17
I15
sg18
I540
sg19
I7
sg20
I00
sg21
I75000
sg22
I196
sg23
S'rebecca.carter@enron.com'
p351
sg25
I-159792
ssS'BUCHANAN HAROLD G'
p352
(dp353
g3
I248017
sg4
I1088
sg5
g6
sg7
I1054637
sg8
I825464
sg9
I500000
sg10
g6
sg11
g6
sg12
I189041
sg13
I1014505
sg14
I600
sg15
I0
sg16
g6
sg17
I125
sg18
I1215
sg19
I0
sg20
I00
sg21
I304805
sg22
I23
sg23
S'john.buchanan@enron.com'
p354
sg25
g6
ssS'YEAP SOON'
p355
(dp356
g3
g6
sg4
g6
sg5
g6
sg7
I55097
sg8
I192758
sg9
g6
sg10
g6
sg11
g6
sg12
g6
sg13
I192758
sg14
I55097
sg15
g6
sg16
g6
sg17
g6
sg18
g6
sg19
g6
sg20
I00
sg21
g6
sg22
g6
sg23
g6
sg25
g6
ssS'MURRAY JULIA H'
p357
(dp358
g3
I229284
sg4
I2192
sg5
g6
sg7
I812194
sg8
I400478
sg9
I400000
sg10
g6
sg11
g6
sg12
I196983
sg13
I597461
sg14
I57580
sg15
I11
sg16
g6
sg17
I45
sg18
I330
sg19
I2
sg20
I00
sg21
I125000
sg22
I395
sg23
S'julia.murray@enron.com'
p359
sg25
g6
ssS'GARLAND C KEVIN'
p360
(dp361
g3
I231946
sg4
I209
sg5
g6
sg7
I1566469
sg8
I636246
sg9
I850000
sg10
g6
sg11
g6
sg12
I259907
sg13
I896153
sg14
I48405
sg15
I10
sg16
g6
sg17
I44
sg18
I60814
sg19
I27
sg20
I00
sg21
I375304
sg22
I178
sg23
S'kevin.garland@enron.com'
p362
sg25
g6
ssS'DODSON KEITH'
p363
(dp364
g3
I221003
sg4
I176
sg5
g6
sg7
I319941
sg8
g6
sg9
I70000
sg10
g6
sg11
g6
sg12
g6
sg13
g6
sg14
I28164
sg15
I10
sg16
g6
sg17
I14
sg18
I774
sg19
I3
sg20
I00
sg21
g6
sg22
I114
sg23
S'keith.dodson@enron.com'
p365
sg25
g6
ssS'YEAGER F SCOTT'
p366
(dp367
g3
I158403
sg4
g6
sg5
g6
sg7
I360300
sg8
I8308552
sg9
g6
sg10
g6
sg11
g6
sg12
I3576206
sg13
I11884758
sg14
I53947
sg15
g6
sg16
g6
sg17
g6
sg18
I147950
sg19
g6
sg20
I01
sg21
g6
sg22
g6
sg23
S'scott.yeager@enron.com'
p368
sg25
g6
ssS'HIRKO JOSEPH'
p369
(dp370
g3
g6
sg4
g6
sg5
I10259
sg7
I91093
sg8
I30766064
sg9
g6
sg10
g6
sg11
g6
sg12
g6
sg13
I30766064
sg14
I77978
sg15
g6
sg16
g6
sg17
g6
sg18
I2856
sg19
g6
sg20
I01
sg21
g6
sg22
g6
sg23
S'joe.hirko@enron.com'
p371
sg25
g6
ssS'DIETRICH JANET R'
p372
(dp373
g3
I250100
sg4
I2572
sg5
g6
sg7
I1410464
sg8
I1550019
sg9
I600000
sg10
g6
sg11
g6
sg12
I315068
sg13
I1865087
sg14
I3475
sg15
I305
sg16
g6
sg17
I63
sg18
I473
sg19
I14
sg20
I00
sg21
I556416
sg22
I1902
sg23
S'janet.dietrich@enron.com'
p374
sg25
g6
ssS'DERRICK JR. JAMES V'
p375
(dp376
g3
I492375
sg4
I2181
sg5
g6
sg7
I550981
sg8
I8831913
sg9
I800000
sg10
g6
sg11
I-1787380
sg12
I1787380
sg13
I8831913
sg14
I51124
sg15
I64
sg16
g6
sg17
I909
sg18
I7482
sg19
I20
sg20
I00
sg21
I484000
sg22
I1401
sg23
S'james.derrick@enron.com'
p377
sg25
I-1284000
ssS'FREVERT MARK A'
p378
(dp379
g3
I1060932
sg4
I3275
sg5
I6426990
sg7
I17252530
sg8
I10433518
sg9
I2000000
sg10
g6
sg11
g6
sg12
I4188667
sg13
I14622185
sg14
I86987
sg15
I242
sg16
I2000000
sg17
I21
sg18
I7427621
sg19
I6
sg20
I00
sg21
I1617011
sg22
I2979
sg23
S'mark.frevert@enron.com'
p380
sg25
I-3367011
ssS'PAI LOU L'
p381
(dp382
g3
I261879
sg4
g6
sg5
g6
sg7
I3123383
sg8
I15364167
sg9
I1000000
sg10
g6
sg11
g6
sg12
I8453763
sg13
I23817930
sg14
I32047
sg15
g6
sg16
g6
sg17
g6
sg18
I1829457
sg19
g6
sg20
I00
sg21
g6
sg22
g6
sg23
S'lou.pai@enron.com'
p383
sg25
g6
ssS'BAY FRANKLIN R'
p384
(dp385
g3
I239671
sg4
g6
sg5
I260455
sg7
I827696
sg8
g6
sg9
I400000
sg10
g6
sg11
I-82782
sg12
I145796
sg13
I63014
sg14
I129142
sg15
g6
sg16
g6
sg17
g6
sg18
I69
sg19
g6
sg20
I00
sg21
g6
sg22
g6
sg23
S'frank.bay@enron.com'
p386
sg25
I-201641
ssS'HAYSLETT RODERICK J'
p387
(dp388
g3
g6
sg4
I2649
sg5
g6
sg7
g6
sg8
g6
sg9
g6
sg10
g6
sg11
g6
sg12
I346663
sg13
I346663
sg14
g6
sg15
I35
sg16
g6
sg17
I1061
sg18
g6
sg19
I38
sg20
I00
sg21
g6
sg22
I571
sg23
S'rod.hayslett@enron.com'
p389
sg25
g6
ssS'FUGH JOHN L'
p390
(dp391
g3
g6
sg4
g6
sg5
I50591
sg7
I50591
sg8
I176378
sg9
g6
sg10
g6
sg11
g6
sg12
g6
sg13
I176378
sg14
g6
sg15
g6
sg16
g6
sg17
g6
sg18
g6
sg19
g6
sg20
I00
sg21
g6
sg22
g6
sg23
g6
sg25
g6
ssS'FALLON JAMES B'
p392
(dp393
g3
I304588
sg4
I1755
sg5
g6
sg7
I3676340
sg8
I940257
sg9
I2500000
sg10
g6
sg11
g6
sg12
I1392142
sg13
I2332399
sg14
I95924
sg15
I42
sg16
g6
sg17
I75
sg18
I401481
sg19
I37
sg20
I00
sg21
I374347
sg22
I1604
sg23
S'jim.fallon@enron.com'
p394
sg25
g6
ssS'KOENIG MARK E'
p395
(dp396
g3
I309946
sg4
I2374
sg5
g6
sg7
I1587421
sg8
I671737
sg9
I700000
sg10
g6
sg11
g6
sg12
I1248318
sg13
I1920055
sg14
I127017
sg15
I53
sg16
g6
sg17
I61
sg18
I150458
sg19
I15
sg20
I01
sg21
I300000
sg22
I2271
sg23
S'mark.koenig@enron.com'
p397
sg25
g6
ssS'SAVAGE FRANK'
p398
(dp399
g3
g6
sg4
g6
sg5
g6
sg7
I3750
sg8
g6
sg9
g6
sg10
I125034
sg11
g6
sg12
g6
sg13
g6
sg14
g6
sg15
g6
sg16
g6
sg17
g6
sg18
g6
sg19
g6
sg20
I00
sg21
g6
sg22
g6
sg23
g6
sg25
I-121284
ssS'IZZO LAWRENCE L'
p400
(dp401
g3
I85274
sg4
I496
sg5
g6
sg7
I1979596
sg8
I2165172
sg9
g6
sg10
g6
sg11
g6
sg12
I3654808
sg13
I5819980
sg14
I28093
sg15
I28
sg16
g6
sg17
I19
sg18
I1553729
sg19
I5
sg20
I00
sg21
I312500
sg22
I437
sg23
S'larry.izzo@enron.com'
p402
sg25
g6
ssS'TILNEY ELIZABETH A'
p403
(dp404
g3
I247338
sg4
I460
sg5
g6
sg7
I399393
sg8
I591250
sg9
I300000
sg10
g6
sg11
g6
sg12
I576792
sg13
I1168042
sg14
g6
sg15
I10
sg16
g6
sg17
I19
sg18
I152055
sg19
I11
sg20
I00
sg21
I275000
sg22
I379
sg23
S'elizabeth.tilney@enron.com'
p405
sg25
I-575000
ssS'MARTIN AMANDA K'
p406
(dp407
g3
I349487
sg4
I1522
sg5
I85430
sg7
I8407016
sg8
I2070306
sg9
g6
sg10
g6
sg11
g6
sg12
g6
sg13
I2070306
sg14
I8211
sg15
I8
sg16
g6
sg17
I230
sg18
I2818454
sg19
I0
sg20
I00
sg21
I5145434
sg22
I477
sg23
S'a..martin@enron.com'
p408
sg25
g6
ssS'BUY RICHARD B'
p409
(dp410
g3
I330546
sg4
I3523
sg5
I649584
sg7
I2355702
sg8
I2542813
sg9
I900000
sg10
g6
sg11
g6
sg12
I901657
sg13
I3444470
sg14
g6
sg15
I156
sg16
g6
sg17
I1053
sg18
I400572
sg19
I71
sg20
I00
sg21
I769862
sg22
I2333
sg23
S'rick.buy@enron.com'
p411
sg25
I-694862
ssS'GRAMM WENDY L'
p412
(dp413
g3
g6
sg4
g6
sg5
g6
sg7
I119292
sg8
g6
sg9
g6
sg10
I119292
sg11
g6
sg12
g6
sg13
g6
sg14
g6
sg15
g6
sg16
g6
sg17
g6
sg18
g6
sg19
g6
sg20
I00
sg21
g6
sg22
g6
sg23
g6
sg25
g6
ssS'CAUSEY RICHARD A'
p414
(dp415
g3
I415189
sg4
I1892
sg5
g6
sg7
I1868758
sg8
g6
sg9
I1000000
sg10
g6
sg11
g6
sg12
I2502063
sg13
I2502063
sg14
I30674
sg15
I58
sg16
g6
sg17
I49
sg18
I307895
sg19
I12
sg20
I01
sg21
I350000
sg22
I1585
sg23
S'richard.causey@enron.com'
p416
sg25
I-235000
ssS'TAYLOR MITCHELL S'
p417
(dp418
g3
I265214
sg4
I533
sg5
I227449
sg7
I1092663
sg8
I3181250
sg9
I600000
sg10
g6
sg11
g6
sg12
I563798
sg13
I3745048
sg14
g6
sg15
I0
sg16
g6
sg17
I29
sg18
g6
sg19
I0
sg20
I00
sg21
g6
sg22
I300
sg23
S'mitchell.taylor@enron.com'
p419
sg25
g6
ssS'DONAHUE JR JEFFREY M'
p420
(dp421
g3
I278601
sg4
I865
sg5
g6
sg7
I875760
sg8
I765920
sg9
I800000
sg10
g6
sg11
g6
sg12
I315068
sg13
I1080988
sg14
I96268
sg15
I188
sg16
g6
sg17
I22
sg18
I891
sg19
I11
sg20
I00
sg21
g6
sg22
I772
sg23
S'jeff.donahue@enron.com'
p422
sg25
I-300000
ssS'GLISAN JR BEN F'
p423
(dp424
g3
I274975
sg4
I873
sg5
g6
sg7
I1272284
sg8
I384728
sg9
I600000
sg10
g6
sg11
g6
sg12
I393818
sg13
I778546
sg14
I125978
sg15
I52
sg16
g6
sg17
I16
sg18
I200308
sg19
I6
sg20
I01
sg21
I71023
sg22
I874
sg23
S'ben.glisan@enron.com'
p425
sg25
g6
ss.